; Function Attrs: nounwind uwtable
define i32 @sch_mux_receive(ptr noundef readonly captures(none) %0, i32 noundef %1, ptr noundef %2) local_unnamed_addr #0 {
  %4 = alloca i32, align 4
  call void @llvm.lifetime.start.p0(i64 4, ptr nonnull %4) #9
  %5 = getelementptr inbounds nuw i8, ptr %0, i64 32
  %6 = load i32, ptr %5, align 8, !tbaa !20
  %7 = icmp ult i32 %1, %6
  br i1 %7, label %9, label %8

8:                                                ; preds = %3
  tail call void (ptr, i32, ptr, ...) @av_log(ptr noundef null, i32 noundef 0, ptr noundef nonnull @.str, ptr noundef nonnull @.str.1, ptr noundef nonnull @.str.2, i32 noundef 2078) #9
  tail call void @abort() #10
  unreachable

9:                                                ; preds = %3
  %10 = getelementptr inbounds nuw i8, ptr %0, i64 24
  %11 = load ptr, ptr %10, align 8, !tbaa !35
  %12 = zext i32 %1 to i64
  %13 = getelementptr inbounds nuw %struct.SchMux, ptr %11, i64 %12, i32 7
  %14 = load ptr, ptr %13, align 8, !tbaa !210
  %15 = call i32 @tq_receive(ptr noundef %14, ptr noundef nonnull %4, ptr noundef %2) #9
  %16 = load i32, ptr %4, align 4, !tbaa !68
  %17 = getelementptr inbounds nuw i8, ptr %2, i64 36
  store i32 %16, ptr %17, align 4, !tbaa !192
  call void @llvm.lifetime.end.p0(i64 4, ptr nonnull %4) #9
  ret i32 %15
}